target datalayout = "e-m:e-p270:32:32-p271:32:32-p272:64:64-i64:64-i128:128-f80:128-n8:16:32:64-S128"
target triple = "x86_64-pc-linux-gnu"

%struct.b2ShapeId = type { i32, i16, i16 }
%struct.b2Vec2 = type { float, float }
%struct.b2ChainShapeArray = type { ptr, i32, i32 }
%struct.b2ShapeArray = type { ptr, i32, i32 }
%struct.b2Filter = type { i64, i64, i32 }
%struct.b2Shape = type { i32, i32, i32, i32, i32, i32, float, float, float, float, float, i32, %struct.b2AABB, %struct.b2AABB, %struct.b2Vec2, i32, %struct.b2Filter, ptr, i32, %union.anon.0, i16, i8, i8, i8, i8 }
%struct.b2AABB = type { %struct.b2Vec2, %struct.b2Vec2 }
%union.anon.0 = type { %struct.b2Polygon }
%struct.b2Polygon = type { [8 x %struct.b2Vec2], [8 x %struct.b2Vec2], %struct.b2Vec2, float, i32 }
%struct.b2World = type { %struct.b2ArenaAllocator, %struct.b2BroadPhase, %struct.b2ConstraintGraph, %struct.b2IdPool, %struct.b2BodyArray, %struct.b2IdPool, %struct.b2SolverSetArray, %struct.b2IdPool, %struct.b2JointArray, %struct.b2IdPool, %struct.b2ContactArray, %struct.b2IdPool, %struct.b2IslandArray, %struct.b2IdPool, %struct.b2IdPool, %struct.b2ShapeArray, %struct.b2ChainShapeArray, %struct.b2SensorArray, %struct.b2TaskContextArray, %struct.b2SensorTaskContextArray, %struct.b2BodyMoveEventArray, %struct.b2SensorBeginTouchEventArray, %struct.b2ContactBeginTouchEventArray, [2 x %struct.b2SensorEndTouchEventArray], [2 x %struct.b2ContactEndTouchEventArray], i32, %struct.b2ContactHitEventArray, %struct.b2BitSet, %struct.b2BitSet, %struct.b2BitSet, i64, i32, %struct.b2Vec2, float, float, float, float, float, float, float, float, ptr, ptr, i16, %struct.b2Profile, ptr, ptr, ptr, ptr, i32, ptr, ptr, ptr, ptr, ptr, float, i32, i32, i16, i8, i8, i8, i8, i8, i8 }
%struct.b2ArenaAllocator = type { ptr, i32, i32, i32, i32, %struct.b2ArenaEntryArray }
%struct.b2ArenaEntryArray = type { ptr, i32, i32 }
%struct.b2BroadPhase = type { [3 x %struct.b2DynamicTree], i32, %struct.b2HashSet, %struct.b2IntArray, ptr, ptr, i32, %struct.b2AtomicInt, %struct.b2HashSet }
%struct.b2DynamicTree = type { ptr, i32, i32, i32, i32, i32, ptr, ptr, ptr, ptr, i32 }
%struct.b2IntArray = type { ptr, i32, i32 }
%struct.b2AtomicInt = type { i32 }
%struct.b2HashSet = type { ptr, i32, i32 }
%struct.b2ConstraintGraph = type { [12 x %struct.b2GraphColor] }
%struct.b2GraphColor = type { %struct.b2BitSet, %struct.b2ContactSimArray, %struct.b2JointSimArray, %union.anon }
%struct.b2ContactSimArray = type { ptr, i32, i32 }
%struct.b2JointSimArray = type { ptr, i32, i32 }
%union.anon = type { ptr }
%struct.b2BodyArray = type { ptr, i32, i32 }
%struct.b2SolverSetArray = type { ptr, i32, i32 }
%struct.b2JointArray = type { ptr, i32, i32 }
%struct.b2ContactArray = type { ptr, i32, i32 }
%struct.b2IslandArray = type { ptr, i32, i32 }
%struct.b2IdPool = type { %struct.b2IntArray, i32 }
%struct.b2SensorArray = type { ptr, i32, i32 }
%struct.b2TaskContextArray = type { ptr, i32, i32 }
%struct.b2SensorTaskContextArray = type { ptr, i32, i32 }
%struct.b2BodyMoveEventArray = type { ptr, i32, i32 }
%struct.b2SensorBeginTouchEventArray = type { ptr, i32, i32 }
%struct.b2ContactBeginTouchEventArray = type { ptr, i32, i32 }
%struct.b2SensorEndTouchEventArray = type { ptr, i32, i32 }
%struct.b2ContactEndTouchEventArray = type { ptr, i32, i32 }
%struct.b2ContactHitEventArray = type { ptr, i32, i32 }
%struct.b2BitSet = type { ptr, i32, i32 }
%struct.b2Profile = type { float, float, float, float, float, float, float, float, float, float, float, float, float, float, float, float, float, float, float, float, float, float }

; Function Attrs: inlinehint nounwind uwtable
define internal ptr @b2ShapeArray_Get(ptr noundef %0, i32 noundef %1) #7 {
  %3 = alloca ptr, align 8
  %4 = alloca i32, align 4
  store ptr %0, ptr %3, align 8, !tbaa !12
  store i32 %1, ptr %4, align 4, !tbaa !3
  %5 = load ptr, ptr %3, align 8, !tbaa !12
  %6 = getelementptr inbounds nuw %struct.b2ShapeArray, ptr %5, i32 0, i32 0
  %7 = load ptr, ptr %6, align 8, !tbaa !14
  %8 = load i32, ptr %4, align 4, !tbaa !3
  %9 = sext i32 %8 to i64
  %10 = getelementptr inbounds %struct.b2Shape, ptr %7, i64 %9
  ret ptr %10
}

; Function Attrs: nounwind uwtable
define internal ptr @b2GetShape(ptr noundef %0, i64 %1) #0 {
  %3 = alloca %struct.b2ShapeId, align 4
  %4 = alloca ptr, align 8
  %5 = alloca i32, align 4
  %6 = alloca ptr, align 8
  store i64 %1, ptr %3, align 4
  store ptr %0, ptr %4, align 8, !tbaa !26
  call void @llvm.lifetime.start.p0(i64 4, ptr %5) #9
  %7 = getelementptr inbounds nuw %struct.b2ShapeId, ptr %3, i32 0, i32 0
  %8 = load i32, ptr %7, align 4, !tbaa !28
  %9 = sub nsw i32 %8, 1
  store i32 %9, ptr %5, align 4, !tbaa !3
  call void @llvm.lifetime.start.p0(i64 8, ptr %6) #9
  %10 = load ptr, ptr %4, align 8, !tbaa !26
  %11 = getelementptr inbounds nuw %struct.b2World, ptr %10, i32 0, i32 15
  %12 = load i32, ptr %5, align 4, !tbaa !3
  %13 = call ptr @b2ShapeArray_Get(ptr noundef %11, i32 noundef %12)
  store ptr %13, ptr %6, align 8, !tbaa !34
  %14 = load ptr, ptr %6, align 8, !tbaa !34
  call void @llvm.lifetime.end.p0(i64 8, ptr %6) #9
  call void @llvm.lifetime.end.p0(i64 4, ptr %5) #9
  ret ptr %14
}

; Function Attrs: nounwind uwtable
define void @b2Shape_EnableContactEvents(i64 %0, i1 noundef zeroext %1) #0 {
  %3 = alloca %struct.b2ShapeId, align 4
  %4 = alloca i8, align 1
  %5 = alloca ptr, align 8
  %6 = alloca i32, align 4
  %7 = alloca ptr, align 8
  store i64 %0, ptr %3, align 4
  %8 = zext i1 %1 to i8
  store i8 %8, ptr %4, align 1, !tbaa !63
  call void @llvm.lifetime.start.p0(i64 8, ptr %5) #9
  %9 = getelementptr inbounds nuw %struct.b2ShapeId, ptr %3, i32 0, i32 1
  %10 = load i16, ptr %9, align 4, !tbaa !30
  %11 = zext i16 %10 to i32
  %12 = call ptr @b2GetWorldLocked(i32 noundef %11)
  store ptr %12, ptr %5, align 8, !tbaa !26
  %13 = load ptr, ptr %5, align 8, !tbaa !26
  %14 = icmp eq ptr %13, null
  br i1 %14, label %15, label %16

15:                                               ; preds = %2
  store i32 1, ptr %6, align 4
  br label %25

16:                                               ; preds = %2
  call void @llvm.lifetime.start.p0(i64 8, ptr %7) #9
  %17 = load ptr, ptr %5, align 8, !tbaa !26
  %18 = load i64, ptr %3, align 4
  %19 = call ptr @b2GetShape(ptr noundef %17, i64 %18)
  store ptr %19, ptr %7, align 8, !tbaa !34
  %20 = load i8, ptr %4, align 1, !tbaa !63, !range !41, !noundef !42
  %21 = trunc i8 %20 to i1
  %22 = load ptr, ptr %7, align 8, !tbaa !34
  %23 = getelementptr inbounds nuw %struct.b2Shape, ptr %22, i32 0, i32 21
  %24 = zext i1 %21 to i8
  store i8 %24, ptr %23, align 2, !tbaa !212
  call void @llvm.lifetime.end.p0(i64 8, ptr %7) #9
  store i32 0, ptr %6, align 4
  br label %25

25:                                               ; preds = %16, %15
  call void @llvm.lifetime.end.p0(i64 8, ptr %5) #9
  %26 = load i32, ptr %6, align 4
  switch i32 %26, label %28 [
    i32 0, label %27
    i32 1, label %27
  ]

27:                                               ; preds = %25, %25
  ret void

28:                                               ; preds = %25
  unreachable
}