; Function Attrs: nounwind uwtable
define void @b2Shape_EnableContactEvents(i64 %0, i1 noundef zeroext %1) local_unnamed_addr #0 {
  %.sroa.2.0.extract.shift = lshr i64 %0, 32
  %3 = trunc nuw i64 %.sroa.2.0.extract.shift to i32
  %4 = and i32 %3, 65535
  %5 = tail call ptr @b2GetWorldLocked(i32 noundef %4) #10
  %6 = icmp eq ptr %5, null
  br i1 %6, label %13, label %7

7:                                                ; preds = %2
  %8 = zext i1 %1 to i8
  %9 = getelementptr i8, ptr %5, i64 1256
  %.val = load ptr, ptr %9, align 8, !tbaa !14
  %10 = shl i64 %0, 32
  %sext.i = add i64 %10, -4294967296
  %11 = ashr exact i64 %sext.i, 32
  %12 = getelementptr inbounds %struct.b2Shape, ptr %.val, i64 %11, i32 21
  store i8 %8, ptr %12, align 2, !tbaa !182
  br label %13

13:                                               ; preds = %2, %7
  ret void
}